; Function Attrs: mustprogress uwtable
define range(i32 -1, 1) i32 @LGBM_NetworkFree() local_unnamed_addr #5 personality ptr @__gxx_personality_v0 {
  %1 = alloca %"class.std::__cxx11::basic_string", align 8
  %2 = alloca %"class.std::allocator", align 1
  invoke void @_ZN8LightGBM7Network7DisposeEv()
          to label %38 unwind label %3

3:                                                ; preds = %0
  %4 = landingpad { ptr, i32 }
          catch ptr @_ZTISt9exception
          catch ptr @_ZTINSt7__cxx1112basic_stringIcSt11char_traitsIcESaIcEEE
          catch ptr null
  %5 = extractvalue { ptr, i32 } %4, 0
  %6 = extractvalue { ptr, i32 } %4, 1
  %7 = tail call i32 @llvm.eh.typeid.for.p0(ptr nonnull @_ZTISt9exception) #26
  %8 = icmp eq i32 %6, %7
  br i1 %8, label %9, label %17

9:                                                ; preds = %3
  %10 = tail call ptr @__cxa_begin_catch(ptr %5) #26
  %11 = load ptr, ptr %10, align 8, !tbaa !14
  %12 = getelementptr inbounds nuw i8, ptr %11, i64 16
  %13 = load ptr, ptr %12, align 8
  %14 = tail call noundef ptr %13(ptr noundef nonnull align 8 dereferenceable(8) %10) #26
  %15 = tail call noundef nonnull align 16 ptr @llvm.threadlocal.address.p0(ptr align 16 @_ZZL12LastErrorMsgvE7err_msg)
  %16 = tail call i32 (ptr, i64, ptr, ...) @snprintf(ptr noundef nonnull dereferenceable(1) %15, i64 noundef 512, ptr noundef nonnull @.str.1, ptr noundef %14) #26
  tail call void @__cxa_end_catch()
  br label %38

17:                                               ; preds = %3
  %18 = tail call i32 @llvm.eh.typeid.for.p0(ptr nonnull @_ZTINSt7__cxx1112basic_stringIcSt11char_traitsIcESaIcEEE) #26
  %19 = icmp eq i32 %6, %18
  %20 = tail call ptr @__cxa_begin_catch(ptr %5) #26
  br i1 %19, label %21, label %25

21:                                               ; preds = %17
  %22 = load ptr, ptr %20, align 8, !tbaa !13
  %23 = tail call noundef nonnull align 16 ptr @llvm.threadlocal.address.p0(ptr align 16 @_ZZL12LastErrorMsgvE7err_msg)
  %24 = tail call i32 (ptr, i64, ptr, ...) @snprintf(ptr noundef nonnull dereferenceable(1) %23, i64 noundef 512, ptr noundef nonnull @.str.1, ptr noundef %22) #26
  tail call void @__cxa_end_catch()
  br label %38

25:                                               ; preds = %17
  call void @llvm.lifetime.start.p0(i64 32, ptr nonnull %1) #26
  call void @llvm.lifetime.start.p0(i64 1, ptr nonnull %2) #26
  invoke void @_ZNSt7__cxx1112basic_stringIcSt11char_traitsIcESaIcEEC2EPKcRKS3_(ptr noundef nonnull align 8 dereferenceable(32) %1, ptr noundef nonnull @.str, ptr noundef nonnull align 1 dereferenceable(1) %2)
          to label %26 unwind label %36

26:                                               ; preds = %25
  %27 = load ptr, ptr %1, align 8, !tbaa !13
  %28 = call noundef nonnull align 16 ptr @llvm.threadlocal.address.p0(ptr align 16 @_ZZL12LastErrorMsgvE7err_msg)
  %29 = call i32 (ptr, i64, ptr, ...) @snprintf(ptr noundef nonnull dereferenceable(1) %28, i64 noundef 512, ptr noundef nonnull @.str.1, ptr noundef %27) #26
  %30 = load ptr, ptr %1, align 8, !tbaa !13
  %31 = getelementptr inbounds nuw i8, ptr %1, i64 16
  %32 = icmp eq ptr %30, %31
  br i1 %32, label %_ZNKSt7__cxx1112basic_stringIcSt11char_traitsIcESaIcEE11_M_is_localEv.exit.thread.i.i, label %_ZNKSt7__cxx1112basic_stringIcSt11char_traitsIcESaIcEE11_M_is_localEv.exit.i.i

_ZNKSt7__cxx1112basic_stringIcSt11char_traitsIcESaIcEE11_M_is_localEv.exit.thread.i.i: ; preds = %26
  %33 = getelementptr inbounds nuw i8, ptr %1, i64 8
  %34 = load i64, ptr %33, align 8, !tbaa !4
  %35 = icmp ult i64 %34, 16
  call void @llvm.assume(i1 %35)
  br label %_ZNSt7__cxx1112basic_stringIcSt11char_traitsIcESaIcEED2Ev.exit

_ZNKSt7__cxx1112basic_stringIcSt11char_traitsIcESaIcEE11_M_is_localEv.exit.i.i: ; preds = %26
  call void @_ZdlPv(ptr noundef %30) #39
  br label %_ZNSt7__cxx1112basic_stringIcSt11char_traitsIcESaIcEED2Ev.exit

_ZNSt7__cxx1112basic_stringIcSt11char_traitsIcESaIcEED2Ev.exit: ; preds = %_ZNKSt7__cxx1112basic_stringIcSt11char_traitsIcESaIcEE11_M_is_localEv.exit.thread.i.i, %_ZNKSt7__cxx1112basic_stringIcSt11char_traitsIcESaIcEE11_M_is_localEv.exit.i.i
  call void @llvm.lifetime.end.p0(i64 1, ptr nonnull %2) #26
  call void @llvm.lifetime.end.p0(i64 32, ptr nonnull %1) #26
  call void @__cxa_end_catch()
  br label %38

36:                                               ; preds = %25
  %37 = landingpad { ptr, i32 }
          cleanup
  call void @llvm.lifetime.end.p0(i64 1, ptr nonnull %2) #26
  call void @llvm.lifetime.end.p0(i64 32, ptr nonnull %1) #26
  invoke void @__cxa_end_catch()
          to label %39 unwind label %40

38:                                               ; preds = %0, %_ZNSt7__cxx1112basic_stringIcSt11char_traitsIcESaIcEED2Ev.exit, %21, %9
  %.0 = phi i32 [ -1, %9 ], [ -1, %21 ], [ -1, %_ZNSt7__cxx1112basic_stringIcSt11char_traitsIcESaIcEED2Ev.exit ], [ 0, %0 ]
  ret i32 %.0

39:                                               ; preds = %36
  resume { ptr, i32 } %37

40:                                               ; preds = %36
  %41 = landingpad { ptr, i32 }
          catch ptr null
  %42 = extractvalue { ptr, i32 } %41, 0
  call void @__clang_call_terminate(ptr %42) #40
  unreachable
}